target datalayout = "e-m:e-p270:32:32-p271:32:32-p272:64:64-i64:64-i128:128-f80:128-n8:16:32:64-S128"
target triple = "x86_64-pc-linux-gnu"

%struct.Vec_Int_t_ = type { i32, i32, ptr }
%struct.Dec_Graph_t_ = type { i32, i32, i32, i32, ptr, %struct.Dec_Edge_t_ }
%struct.Dec_Edge_t_ = type { i32 }

; Function Attrs: nounwind uwtable
define internal void @Dec_GraphFree(ptr noundef %0) #0 {
  %2 = alloca ptr, align 8
  store ptr %0, ptr %2, align 8
  %3 = load ptr, ptr %2, align 8
  %4 = getelementptr inbounds %struct.Dec_Graph_t_, ptr %3, i32 0, i32 4
  %5 = load ptr, ptr %4, align 8
  %6 = icmp ne ptr %5, null
  br i1 %6, label %7, label %13

7:                                                ; preds = %1
  %8 = load ptr, ptr %2, align 8
  %9 = getelementptr inbounds %struct.Dec_Graph_t_, ptr %8, i32 0, i32 4
  %10 = load ptr, ptr %9, align 8
  call void @free(ptr noundef %10) #10
  %11 = load ptr, ptr %2, align 8
  %12 = getelementptr inbounds %struct.Dec_Graph_t_, ptr %11, i32 0, i32 4
  store ptr null, ptr %12, align 8
  br label %14

13:                                               ; preds = %1
  br label %14

14:                                               ; preds = %13, %7
  %15 = load ptr, ptr %2, align 8
  %16 = icmp ne ptr %15, null
  br i1 %16, label %17, label %19

17:                                               ; preds = %14
  %18 = load ptr, ptr %2, align 8
  call void @free(ptr noundef %18) #10
  store ptr null, ptr %2, align 8
  br label %20

19:                                               ; preds = %14
  br label %20

20:                                               ; preds = %19, %17
  ret void
}

; Function Attrs: nounwind uwtable
define i32 @Abc_NodeCheckFull(ptr noundef %0, ptr noundef %1) #0 {
  %3 = alloca ptr, align 8
  %4 = alloca ptr, align 8
  store ptr %0, ptr %3, align 8
  store ptr %1, ptr %4, align 8
  ret i32 1
}

; Function Attrs: nounwind uwtable
define internal ptr @Dec_GraphCreateConst1() #0 {
  %1 = alloca ptr, align 8
  %2 = call noalias ptr @malloc(i64 noundef 32) #9
  store ptr %2, ptr %1, align 8
  %3 = load ptr, ptr %1, align 8
  call void @llvm.memset.p0.i64(ptr align 8 %3, i8 0, i64 32, i1 false)
  %4 = load ptr, ptr %1, align 8
  %5 = getelementptr inbounds %struct.Dec_Graph_t_, ptr %4, i32 0, i32 0
  store i32 1, ptr %5, align 8
  %6 = load ptr, ptr %1, align 8
  ret ptr %6
}

; Function Attrs: nounwind uwtable
define internal ptr @Dec_GraphCreateConst0() #0 {
  %1 = alloca ptr, align 8
  %2 = call noalias ptr @malloc(i64 noundef 32) #9
  store ptr %2, ptr %1, align 8
  %3 = load ptr, ptr %1, align 8
  call void @llvm.memset.p0.i64(ptr align 8 %3, i8 0, i64 32, i1 false)
  %4 = load ptr, ptr %1, align 8
  %5 = getelementptr inbounds %struct.Dec_Graph_t_, ptr %4, i32 0, i32 0
  store i32 1, ptr %5, align 8
  %6 = load ptr, ptr %1, align 8
  %7 = getelementptr inbounds %struct.Dec_Graph_t_, ptr %6, i32 0, i32 5
  %8 = load i32, ptr %7, align 8
  %9 = and i32 %8, -2
  %10 = or i32 %9, 1
  store i32 %10, ptr %7, align 8
  %11 = load ptr, ptr %1, align 8
  ret ptr %11
}

; Function Attrs: nounwind uwtable
define internal i32 @Vec_IntEntryLast(ptr noundef %0) #0 {
  %2 = alloca ptr, align 8
  store ptr %0, ptr %2, align 8
  %3 = load ptr, ptr %2, align 8
  %4 = getelementptr inbounds %struct.Vec_Int_t_, ptr %3, i32 0, i32 2
  %5 = load ptr, ptr %4, align 8
  %6 = load ptr, ptr %2, align 8
  %7 = getelementptr inbounds %struct.Vec_Int_t_, ptr %6, i32 0, i32 1
  %8 = load i32, ptr %7, align 4
  %9 = sub nsw i32 %8, 1
  %10 = sext i32 %9 to i64
  %11 = getelementptr inbounds i32, ptr %5, i64 %10
  %12 = load i32, ptr %11, align 4
  ret i32 %12
}

; Function Attrs: nounwind uwtable
define ptr @Abc_NodeMffcConstants(ptr noundef %0, ptr noundef %1) #0 {
  %3 = alloca ptr, align 8
  %4 = alloca ptr, align 8
  %5 = alloca ptr, align 8
  %6 = alloca ptr, align 8
  %7 = alloca i32, align 4
  store ptr %0, ptr %4, align 8
  store ptr %1, ptr %5, align 8
  store ptr null, ptr %6, align 8
  %8 = load ptr, ptr %5, align 8
  %9 = call i32 @Vec_IntEntryLast(ptr noundef %8)
  store i32 %9, ptr %7, align 4
  %10 = load i32, ptr %7, align 4
  %11 = icmp eq i32 %10, 0
  br i1 %11, label %12, label %14

12:                                               ; preds = %2
  %13 = call ptr @Dec_GraphCreateConst0()
  store ptr %13, ptr %6, align 8
  br label %20

14:                                               ; preds = %2
  %15 = load i32, ptr %7, align 4
  %16 = icmp eq i32 %15, -1
  br i1 %16, label %17, label %19

17:                                               ; preds = %14
  %18 = call ptr @Dec_GraphCreateConst1()
  store ptr %18, ptr %6, align 8
  br label %19

19:                                               ; preds = %17, %14
  br label %20

20:                                               ; preds = %19, %12
  %21 = load ptr, ptr %4, align 8
  %22 = load ptr, ptr %6, align 8
  %23 = call i32 @Abc_NodeCheckFull(ptr noundef %21, ptr noundef %22)
  %24 = icmp ne i32 %23, 0
  br i1 %24, label %25, label %27

25:                                               ; preds = %20
  %26 = load ptr, ptr %6, align 8
  store ptr %26, ptr %3, align 8
  br label %29

27:                                               ; preds = %20
  %28 = load ptr, ptr %6, align 8
  call void @Dec_GraphFree(ptr noundef %28)
  store ptr null, ptr %3, align 8
  br label %29

29:                                               ; preds = %27, %25
  %30 = load ptr, ptr %3, align 8
  ret ptr %30
}