; Function Attrs: mustprogress nofree nounwind willreturn memory(readwrite, argmem: read) uwtable
define noalias noundef ptr @Abc_NodeMffcConstants(ptr noundef readnone captures(none) %0, ptr noundef readonly captures(none) %1) local_unnamed_addr #6 {
  %3 = getelementptr i8, ptr %1, i64 4
  %.val = load i32, ptr %3, align 4
  %4 = getelementptr i8, ptr %1, i64 8
  %.val9 = load ptr, ptr %4, align 8
  %5 = sext i32 %.val to i64
  %6 = getelementptr i32, ptr %.val9, i64 %5
  %7 = getelementptr i8, ptr %6, i64 -4
  %8 = load i32, ptr %7, align 4
  switch i32 %8, label %12 [
    i32 0, label %9
    i32 -1, label %11
  ]

9:                                                ; preds = %2
  %calloc.i = tail call noalias noundef dereferenceable_or_null(32) ptr @calloc(i64 1, i64 32)
  store i32 1, ptr %calloc.i, align 8
  %10 = getelementptr inbounds nuw i8, ptr %calloc.i, i64 24
  store i32 1, ptr %10, align 8
  br label %12

11:                                               ; preds = %2
  %calloc.i10 = tail call noalias noundef dereferenceable_or_null(32) ptr @calloc(i64 1, i64 32)
  store i32 1, ptr %calloc.i10, align 8
  br label %12

12:                                               ; preds = %2, %11, %9
  %.07 = phi ptr [ %calloc.i, %9 ], [ %calloc.i10, %11 ], [ null, %2 ]
  ret ptr %.07
}